; Function Attrs: nounwind sspstrong uwtable
define internal i64 @nucomp_polar(i64 noundef %0) #0 {
  %2 = and i64 %0, 1
  %.not.i.i = icmp eq i64 %2, 0
  br i1 %.not.i.i, label %3, label %rb_integer_type_p.exit.thread.i

3:                                                ; preds = %1
  %4 = icmp eq i64 %0, 0
  %5 = and i64 %0, 6
  %6 = icmp ne i64 %5, 0
  %7 = or i1 %4, %6
  br i1 %7, label %rb_integer_type_p.exit.thread15.i, label %rb_integer_type_p.exit.i

rb_integer_type_p.exit.i:                         ; preds = %3
  %8 = inttoptr i64 %0 to ptr
  %9 = load i64, ptr %8, align 8, !tbaa !19
  %10 = and i64 %9, 31
  %11 = icmp eq i64 %10, 10
  br i1 %11, label %rb_integer_type_p.exit.thread.i, label %rb_integer_type_p.exit.thread15.i

rb_integer_type_p.exit.thread.i:                  ; preds = %rb_integer_type_p.exit.i, %1
  %12 = tail call i64 @rb_int_abs(i64 noundef %0) #17
  br label %f_abs.exit

rb_integer_type_p.exit.thread15.i:                ; preds = %rb_integer_type_p.exit.i, %3
  %13 = and i64 %0, 2
  %.not.i = icmp eq i64 %13, 0
  br i1 %.not.i, label %14, label %RB_FLOAT_TYPE_P.exit.thread.i

14:                                               ; preds = %rb_integer_type_p.exit.thread15.i
  %15 = and i64 %0, 4
  %16 = icmp ne i64 %15, 0
  %17 = or i1 %4, %16
  br i1 %17, label %rbimpl_RB_TYPE_P_fastpath.exit.thread.i, label %RB_FLOAT_TYPE_P.exit.i

RB_FLOAT_TYPE_P.exit.i:                           ; preds = %14
  %18 = inttoptr i64 %0 to ptr
  %19 = load i64, ptr %18, align 8, !tbaa !19
  %20 = and i64 %19, 31
  switch i64 %20, label %rbimpl_RB_TYPE_P_fastpath.exit.thread.i [
    i64 4, label %RB_FLOAT_TYPE_P.exit.thread.i
    i64 15, label %22
    i64 14, label %24
  ]

RB_FLOAT_TYPE_P.exit.thread.i:                    ; preds = %RB_FLOAT_TYPE_P.exit.i, %rb_integer_type_p.exit.thread15.i
  %21 = tail call i64 @rb_float_abs(i64 noundef %0) #17
  br label %f_abs.exit

22:                                               ; preds = %RB_FLOAT_TYPE_P.exit.i
  %23 = tail call i64 @rb_rational_abs(i64 noundef %0) #17
  br label %f_abs.exit

24:                                               ; preds = %RB_FLOAT_TYPE_P.exit.i
  %25 = tail call i64 @rb_complex_abs(i64 noundef %0) #18
  br label %f_abs.exit

rbimpl_RB_TYPE_P_fastpath.exit.thread.i:          ; preds = %RB_FLOAT_TYPE_P.exit.i, %14
  %26 = load i64, ptr @id_abs, align 8, !tbaa !11
  %27 = tail call i64 (i64, i64, i32, ...) @rb_funcall(i64 noundef %0, i64 noundef %26, i32 noundef 0) #17
  br label %f_abs.exit

f_abs.exit:                                       ; preds = %rb_integer_type_p.exit.thread.i, %RB_FLOAT_TYPE_P.exit.thread.i, %22, %24, %rbimpl_RB_TYPE_P_fastpath.exit.thread.i
  %.0.i = phi i64 [ %12, %rb_integer_type_p.exit.thread.i ], [ %21, %RB_FLOAT_TYPE_P.exit.thread.i ], [ %23, %22 ], [ %25, %24 ], [ %27, %rbimpl_RB_TYPE_P_fastpath.exit.thread.i ]
  %28 = tail call fastcc i64 @f_arg(i64 noundef %0)
  %29 = tail call i64 @rb_assoc_new(i64 noundef %.0.i, i64 noundef %28) #17
  ret i64 %29
}